; Function Attrs: nounwind uwtable
define dso_local noundef zeroext i1 @have_relevant_eclass_joinclause(ptr noundef readonly captures(none) %0, ptr noundef readonly captures(none) %1, ptr noundef readonly captures(none) %2) local_unnamed_addr #0 {
  %4 = getelementptr inbounds nuw i8, ptr %1, i64 8
  %5 = load ptr, ptr %4, align 8
  %6 = getelementptr inbounds nuw i8, ptr %2, i64 8
  %7 = load ptr, ptr %6, align 8
  %8 = tail call fastcc ptr @get_common_eclass_indexes(ptr noundef %0, ptr noundef %5, ptr noundef %7)
  %9 = tail call i32 @bms_next_member(ptr noundef %8, i32 noundef -1) #8
  %10 = icmp sgt i32 %9, -1
  br i1 %10, label %.lr.ph, label %.critedge._crit_edge

.lr.ph:                                           ; preds = %3
  %11 = getelementptr inbounds nuw i8, ptr %0, i64 176
  br label %12

12:                                               ; preds = %.lr.ph, %.critedge.backedge
  %13 = phi i32 [ %9, %.lr.ph ], [ %24, %.critedge.backedge ]
  %14 = load ptr, ptr %11, align 8
  %15 = getelementptr i8, ptr %14, i64 16
  %.val = load ptr, ptr %15, align 8
  %16 = zext nneg i32 %13 to i64
  %17 = getelementptr inbounds nuw %union.ListCell, ptr %.val, i64 %16
  %18 = load ptr, ptr %17, align 8
  %19 = getelementptr inbounds nuw i8, ptr %18, i64 24
  %20 = load ptr, ptr %19, align 8
  %.not.i = icmp eq ptr %20, null
  br i1 %.not.i, label %.critedge.backedge, label %list_length.exit

list_length.exit:                                 ; preds = %12
  %21 = getelementptr inbounds nuw i8, ptr %20, i64 4
  %22 = load i32, ptr %21, align 4
  %23 = icmp slt i32 %22, 2
  br i1 %23, label %.critedge.backedge, label %.critedge._crit_edge

.critedge.backedge:                               ; preds = %list_length.exit, %12
  %24 = tail call i32 @bms_next_member(ptr noundef %8, i32 noundef %13) #8
  %25 = icmp sgt i32 %24, -1
  br i1 %25, label %12, label %.critedge._crit_edge

.critedge._crit_edge:                             ; preds = %list_length.exit, %.critedge.backedge, %3
  %.lcssa = phi i1 [ false, %3 ], [ false, %.critedge.backedge ], [ true, %list_length.exit ]
  ret i1 %.lcssa
}